target datalayout = "e-m:e-p270:32:32-p271:32:32-p272:64:64-i64:64-i128:128-f80:128-n8:16:32:64-S128"
target triple = "x86_64-pc-linux-gnu"

%"class.llvm::AnalysisResolver" = type { %"class.std::vector.194", ptr }
%"class.std::vector.194" = type { %"struct.std::_Vector_base.195" }
%"struct.std::_Vector_base.195" = type { %"struct.std::_Vector_base<std::pair<const void *, llvm::Pass *>, std::allocator<std::pair<const void *, llvm::Pass *>>>::_Vector_impl" }
%"struct.std::_Vector_base<std::pair<const void *, llvm::Pass *>, std::allocator<std::pair<const void *, llvm::Pass *>>>::_Vector_impl" = type { %"struct.std::_Vector_base<std::pair<const void *, llvm::Pass *>, std::allocator<std::pair<const void *, llvm::Pass *>>>::_Vector_impl_data" }
%"struct.std::_Vector_base<std::pair<const void *, llvm::Pass *>, std::allocator<std::pair<const void *, llvm::Pass *>>>::_Vector_impl_data" = type { ptr, ptr, ptr }
%"class.std::tuple.241" = type { %"struct.std::_Tuple_impl.242" }
%"struct.std::_Tuple_impl.242" = type { %"struct.std::_Tuple_impl.243", %"struct.std::_Head_base.245" }
%"struct.std::_Tuple_impl.243" = type { %"struct.std::_Head_base.244" }
%"struct.std::_Head_base.244" = type { i8 }
%"struct.std::_Head_base.245" = type { ptr }

; Function Attrs: mustprogress nounwind uwtable
define dso_local void @_ZN4llvm16AnalysisResolver12findImplPassEPNS_4PassEPKvRNS_8FunctionE(ptr dead_on_unwind noalias writable sret(%"class.std::tuple.241") align 8 %0, ptr noundef nonnull align 8 dereferenceable(32) %1, ptr noundef %2, ptr noundef %3, ptr noundef nonnull align 8 dereferenceable(136) %4) #1 align 2 {
  %6 = alloca ptr, align 8
  %7 = alloca ptr, align 8
  %8 = alloca ptr, align 8
  %9 = alloca ptr, align 8
  %10 = alloca ptr, align 8
  store ptr %0, ptr %6, align 8
  store ptr %1, ptr %7, align 8
  store ptr %2, ptr %8, align 8
  store ptr %3, ptr %9, align 8
  store ptr %4, ptr %10, align 8
  %11 = load ptr, ptr %7, align 8
  %12 = getelementptr inbounds nuw %"class.llvm::AnalysisResolver", ptr %11, i32 0, i32 1
  %13 = load ptr, ptr %12, align 8
  %14 = load ptr, ptr %8, align 8
  %15 = load ptr, ptr %9, align 8
  %16 = load ptr, ptr %10, align 8
  %17 = load ptr, ptr %13, align 8
  %18 = getelementptr inbounds ptr, ptr %17, i64 4
  %19 = load ptr, ptr %18, align 8
  call void %19(ptr dead_on_unwind writable sret(%"class.std::tuple.241") align 8 %0, ptr noundef nonnull align 8 dereferenceable(380) %13, ptr noundef %14, ptr noundef %15, ptr noundef nonnull align 8 dereferenceable(136) %16)
  ret void
}