; Function Attrs: mustprogress nounwind uwtable
define dso_local void @_ZN4llvm16AnalysisResolver12findImplPassEPNS_4PassEPKvRNS_8FunctionE(ptr dead_on_unwind noalias writable sret(%"class.std::tuple.241") align 8 %0, ptr nocapture noundef nonnull readonly align 8 dereferenceable(32) %1, ptr noundef %2, ptr noundef %3, ptr noundef nonnull align 8 dereferenceable(136) %4) local_unnamed_addr #0 align 2 {
  %6 = getelementptr inbounds nuw i8, ptr %1, i64 24
  %7 = load ptr, ptr %6, align 8
  %8 = load ptr, ptr %7, align 8
  %9 = getelementptr inbounds i8, ptr %8, i64 32
  %10 = load ptr, ptr %9, align 8
  tail call void %10(ptr dead_on_unwind writable sret(%"class.std::tuple.241") align 8 %0, ptr noundef nonnull align 8 dereferenceable(380) %7, ptr noundef %2, ptr noundef %3, ptr noundef nonnull align 8 dereferenceable(136) %4) #27
  ret void
}